; Function Attrs: mustprogress uwtable
define hidden void @_ZN2cv4epnp19find_betas_approx_2EPK5CvMatS3_Pd(ptr nonnull readnone align 8 captures(none) %0, ptr noundef readonly captures(none) %1, ptr noundef %2, ptr noundef writeonly captures(none) %3) local_unnamed_addr #3 align 2 {
  %5 = alloca [18 x double], align 16
  %6 = alloca [3 x double], align 16
  %7 = alloca %struct.CvMat, align 8
  %8 = alloca %struct.CvMat, align 8
  call void @llvm.lifetime.start.p0(i64 144, ptr nonnull %5) #24
  call void @llvm.memset.p0.i64(ptr noundef nonnull align 16 dereferenceable(144) %5, i8 0, i64 144, i1 false)
  call void @llvm.lifetime.start.p0(i64 24, ptr nonnull %6) #24
  call void @llvm.memset.p0.i64(ptr noundef nonnull align 16 dereferenceable(24) %6, i8 0, i64 24, i1 false)
  call void @llvm.lifetime.start.p0(i64 40, ptr nonnull %7) #24
  store i32 1111638022, ptr %7, align 8, !tbaa !64, !alias.scope !146
  %9 = getelementptr inbounds nuw i8, ptr %7, i64 36
  store i32 3, ptr %9, align 4, !tbaa !69, !alias.scope !146
  %10 = getelementptr inbounds nuw i8, ptr %7, i64 32
  store i32 6, ptr %10, align 8, !tbaa !69, !alias.scope !146
  %11 = getelementptr inbounds nuw i8, ptr %7, i64 4
  store i32 24, ptr %11, align 4, !tbaa !70, !alias.scope !146
  %12 = getelementptr inbounds nuw i8, ptr %7, i64 24
  store ptr %5, ptr %12, align 8, !tbaa !69, !alias.scope !146
  %13 = getelementptr inbounds nuw i8, ptr %7, i64 8
  store ptr null, ptr %13, align 8, !tbaa !71, !alias.scope !146
  %14 = getelementptr inbounds nuw i8, ptr %7, i64 16
  store i32 0, ptr %14, align 8, !tbaa !72, !alias.scope !146
  call void @llvm.lifetime.start.p0(i64 40, ptr nonnull %8) #24
  store i32 1111638022, ptr %8, align 8, !tbaa !64, !alias.scope !149
  %15 = getelementptr inbounds nuw i8, ptr %8, i64 36
  store i32 1, ptr %15, align 4, !tbaa !69, !alias.scope !149
  %16 = getelementptr inbounds nuw i8, ptr %8, i64 32
  store i32 3, ptr %16, align 8, !tbaa !69, !alias.scope !149
  %17 = getelementptr inbounds nuw i8, ptr %8, i64 4
  store i32 8, ptr %17, align 4, !tbaa !70, !alias.scope !149
  %18 = getelementptr inbounds nuw i8, ptr %8, i64 24
  store ptr %6, ptr %18, align 8, !tbaa !69, !alias.scope !149
  %19 = getelementptr inbounds nuw i8, ptr %8, i64 8
  store ptr null, ptr %19, align 8, !tbaa !71, !alias.scope !149
  %20 = getelementptr inbounds nuw i8, ptr %8, i64 16
  store i32 0, ptr %20, align 8, !tbaa !72, !alias.scope !149
  %21 = load i32, ptr %1, align 8, !tbaa !64
  %22 = and i32 %21, 4095
  %23 = icmp eq i32 %22, 5
  %24 = getelementptr inbounds nuw i8, ptr %1, i64 24
  %25 = getelementptr inbounds nuw i8, ptr %1, i64 4
  %26 = load i32, ptr %25, align 4, !tbaa !70
  %27 = sext i32 %26 to i64
  %28 = load ptr, ptr %24, align 8, !tbaa !69
  br i1 %23, label %_ZL6cvmSetP5CvMatiid.exit27.us.preheader, label %_ZL6cvmSetP5CvMatiid.exit27.preheader

_ZL6cvmSetP5CvMatiid.exit27.preheader:            ; preds = %4
  %invariant.gep = getelementptr i8, ptr %28, i64 8
  %invariant.gep40 = getelementptr i8, ptr %28, i64 16
  br label %_ZL6cvmSetP5CvMatiid.exit27

_ZL6cvmSetP5CvMatiid.exit27.us.preheader:         ; preds = %4
  %invariant.gep42 = getelementptr i8, ptr %28, i64 4
  %29 = load ptr, ptr %24, align 8, !tbaa !69
  %invariant.gep44 = getelementptr i8, ptr %29, i64 8
  br label %_ZL6cvmSetP5CvMatiid.exit27.us

_ZL6cvmSetP5CvMatiid.exit27.us:                   ; preds = %_ZL6cvmSetP5CvMatiid.exit27.us.preheader, %_ZL6cvmSetP5CvMatiid.exit27.us
  %indvars.iv35 = phi i64 [ 0, %_ZL6cvmSetP5CvMatiid.exit27.us.preheader ], [ %indvars.iv.next36, %_ZL6cvmSetP5CvMatiid.exit27.us ]
  %30 = mul nsw i64 %indvars.iv35, %27
  %31 = getelementptr inbounds nuw i8, ptr %28, i64 %30
  %32 = load float, ptr %31, align 4, !tbaa !18
  %33 = fpext float %32 to double
  %34 = mul nuw nsw i64 %indvars.iv35, 24
  %35 = getelementptr inbounds nuw i8, ptr %5, i64 %34
  store double %33, ptr %35, align 8, !tbaa !32
  %gep43 = getelementptr i8, ptr %invariant.gep42, i64 %30
  %36 = load float, ptr %gep43, align 4, !tbaa !18
  %37 = fpext float %36 to double
  %38 = getelementptr inbounds nuw i8, ptr %35, i64 8
  store double %37, ptr %38, align 8, !tbaa !32
  %gep45 = getelementptr i8, ptr %invariant.gep44, i64 %30
  %39 = load float, ptr %gep45, align 4, !tbaa !18
  %40 = fpext float %39 to double
  %41 = getelementptr inbounds nuw i8, ptr %35, i64 16
  store double %40, ptr %41, align 8, !tbaa !32
  %indvars.iv.next36 = add nuw nsw i64 %indvars.iv35, 1
  %exitcond38.not = icmp eq i64 %indvars.iv.next36, 6
  br i1 %exitcond38.not, label %.split32.us, label %_ZL6cvmSetP5CvMatiid.exit27.us, !llvm.loop !152

.split32.us:                                      ; preds = %_ZL6cvmSetP5CvMatiid.exit27, %_ZL6cvmSetP5CvMatiid.exit27.us
  %42 = call i32 @cvSolve(ptr noundef nonnull %7, ptr noundef %2, ptr noundef nonnull %8, i32 noundef 1)
  %43 = load double, ptr %6, align 16, !tbaa !32
  %44 = fcmp olt double %43, 0.000000e+00
  br i1 %44, label %54, label %62

_ZL6cvmSetP5CvMatiid.exit27:                      ; preds = %_ZL6cvmSetP5CvMatiid.exit27.preheader, %_ZL6cvmSetP5CvMatiid.exit27
  %indvars.iv = phi i64 [ 0, %_ZL6cvmSetP5CvMatiid.exit27.preheader ], [ %indvars.iv.next, %_ZL6cvmSetP5CvMatiid.exit27 ]
  %45 = mul nsw i64 %indvars.iv, %27
  %46 = getelementptr inbounds nuw i8, ptr %28, i64 %45
  %47 = load double, ptr %46, align 8, !tbaa !32
  %48 = mul nuw nsw i64 %indvars.iv, 24
  %49 = getelementptr inbounds nuw i8, ptr %5, i64 %48
  store double %47, ptr %49, align 8, !tbaa !32
  %gep = getelementptr i8, ptr %invariant.gep, i64 %45
  %50 = load double, ptr %gep, align 8, !tbaa !32
  %51 = getelementptr inbounds nuw i8, ptr %49, i64 8
  store double %50, ptr %51, align 8, !tbaa !32
  %gep41 = getelementptr i8, ptr %invariant.gep40, i64 %45
  %52 = load double, ptr %gep41, align 8, !tbaa !32
  %53 = getelementptr inbounds nuw i8, ptr %49, i64 16
  store double %52, ptr %53, align 8, !tbaa !32
  %indvars.iv.next = add nuw nsw i64 %indvars.iv, 1
  %exitcond.not = icmp eq i64 %indvars.iv.next, 6
  br i1 %exitcond.not, label %.split32.us, label %_ZL6cvmSetP5CvMatiid.exit27, !llvm.loop !152

54:                                               ; preds = %.split32.us
  %55 = fneg double %43
  %56 = call double @sqrt(double noundef %55) #24, !tbaa !38
  store double %56, ptr %3, align 8, !tbaa !32
  %57 = getelementptr inbounds nuw i8, ptr %6, i64 16
  %58 = load double, ptr %57, align 16, !tbaa !32
  %59 = fcmp olt double %58, 0.000000e+00
  br i1 %59, label %60, label %68

60:                                               ; preds = %54
  %61 = fneg double %58
  br label %.sink.split

62:                                               ; preds = %.split32.us
  %63 = call double @sqrt(double noundef %43) #24, !tbaa !38
  store double %63, ptr %3, align 8, !tbaa !32
  %64 = getelementptr inbounds nuw i8, ptr %6, i64 16
  %65 = load double, ptr %64, align 16, !tbaa !32
  %66 = fcmp ogt double %65, 0.000000e+00
  br i1 %66, label %.sink.split, label %68

.sink.split:                                      ; preds = %62, %60
  %.sink47 = phi double [ %61, %60 ], [ %65, %62 ]
  %.ph = phi double [ %56, %60 ], [ %63, %62 ]
  %67 = call double @sqrt(double noundef %.sink47) #24, !tbaa !38
  br label %68

68:                                               ; preds = %.sink.split, %62, %54
  %.sink = phi double [ 0.000000e+00, %54 ], [ 0.000000e+00, %62 ], [ %67, %.sink.split ]
  %69 = phi double [ %56, %54 ], [ %63, %62 ], [ %.ph, %.sink.split ]
  %70 = getelementptr inbounds nuw i8, ptr %3, i64 8
  store double %.sink, ptr %70, align 8, !tbaa !32
  %71 = getelementptr inbounds nuw i8, ptr %6, i64 8
  %72 = load double, ptr %71, align 8, !tbaa !32
  %73 = fcmp olt double %72, 0.000000e+00
  br i1 %73, label %74, label %76

74:                                               ; preds = %68
  %75 = fneg double %69
  store double %75, ptr %3, align 8, !tbaa !32
  br label %76

76:                                               ; preds = %74, %68
  %77 = getelementptr inbounds nuw i8, ptr %3, i64 16
  call void @llvm.memset.p0.i64(ptr noundef nonnull align 8 dereferenceable(16) %77, i8 0, i64 16, i1 false)
  call void @llvm.lifetime.end.p0(i64 40, ptr nonnull %8) #24
  call void @llvm.lifetime.end.p0(i64 40, ptr nonnull %7) #24
  call void @llvm.lifetime.end.p0(i64 24, ptr nonnull %6) #24
  call void @llvm.lifetime.end.p0(i64 144, ptr nonnull %5) #24
  ret void
}